target datalayout = "e-m:e-p270:32:32-p271:32:32-p272:64:64-i64:64-i128:128-f80:128-n8:16:32:64-S128"
target triple = "x86_64-pc-linux-gnu"

%"struct.OpenColorIO_v2_5dev::Primaries" = type { %"struct.OpenColorIO_v2_5dev::Chromaticities", %"struct.OpenColorIO_v2_5dev::Chromaticities", %"struct.OpenColorIO_v2_5dev::Chromaticities", %"struct.OpenColorIO_v2_5dev::Chromaticities" }
%"struct.OpenColorIO_v2_5dev::Chromaticities" = type { [2 x double] }
%"class.OpenColorIO_v2_5dev::MatrixOpData::Offsets" = type { [4 x double] }
%"class.std::shared_ptr" = type { %"class.std::__shared_ptr" }
%"class.std::__shared_ptr" = type { ptr, %"class.std::__shared_count" }
%"class.std::__shared_count" = type { ptr }

@_ZN19OpenColorIO_v2_5dev8ACES_AP19primariesE = external global %"struct.OpenColorIO_v2_5dev::Primaries", align 8
@_ZN19OpenColorIO_v2_5dev10WHITEPOINT7D60_XYZE = external global %"class.OpenColorIO_v2_5dev::MatrixOpData::Offsets", align 8
@_ZN19OpenColorIO_v2_5dev10WHITEPOINT7D65_XYZE = external global %"class.OpenColorIO_v2_5dev::MatrixOpData::Offsets", align 8

; Function Attrs: mustprogress uwtable
define hidden void @_ZN19OpenColorIO_v2_5dev11ACES_OUTPUT30Generate_hdr_primary_clamp_opsERNS_10OpRcPtrVecERKNS_9PrimariesE(ptr noundef nonnull align 8 dereferenceable(144) %0, ptr noundef nonnull align 8 dereferenceable(64) %1) #4 personality ptr @__gxx_personality_v0 {
  %3 = alloca ptr, align 8
  %4 = alloca ptr, align 8
  %5 = alloca %"class.std::shared_ptr", align 8
  %6 = alloca ptr, align 8
  %7 = alloca i32, align 4
  %8 = alloca %"class.std::shared_ptr", align 8
  %9 = alloca %"class.std::shared_ptr", align 8
  store ptr %0, ptr %3, align 8, !tbaa !3
  store ptr %1, ptr %4, align 8, !tbaa !69
  call void @llvm.lifetime.start.p0(i64 16, ptr %5) #3
  %10 = load ptr, ptr %4, align 8, !tbaa !69
  call void @_ZN19OpenColorIO_v2_5dev23build_conversion_matrixERKNS_9PrimariesES2_NS_16AdaptationMethodE(ptr dead_on_unwind writable sret(%"class.std::shared_ptr") align 8 %5, ptr noundef nonnull align 8 dereferenceable(64) @_ZN19OpenColorIO_v2_5dev8ACES_AP19primariesE, ptr noundef nonnull align 8 dereferenceable(64) %10, i32 noundef 0)
  %11 = load ptr, ptr %3, align 8, !tbaa !3
  invoke void @_ZN19OpenColorIO_v2_5dev14CreateMatrixOpERNS_10OpRcPtrVecERSt10shared_ptrINS_12MatrixOpData11MatrixArrayEENS_18TransformDirectionE(ptr noundef nonnull align 8 dereferenceable(144) %11, ptr noundef nonnull align 8 dereferenceable(16) %5, i32 noundef 0)
          to label %12 unwind label %22

12:                                               ; preds = %2
  %13 = load ptr, ptr %3, align 8, !tbaa !3
  invoke void @_ZN19OpenColorIO_v2_5dev13CreateRangeOpERNS_10OpRcPtrVecEddddNS_18TransformDirectionE(ptr noundef nonnull align 8 dereferenceable(144) %13, double noundef 0.000000e+00, double noundef 1.000000e+00, double noundef 0.000000e+00, double noundef 1.000000e+00, i32 noundef 0)
          to label %14 unwind label %22

14:                                               ; preds = %12
  call void @llvm.lifetime.start.p0(i64 16, ptr %8) #3
  %15 = load ptr, ptr %4, align 8, !tbaa !69
  invoke void @_ZN19OpenColorIO_v2_5dev15rgb2xyz_from_xyERKNS_9PrimariesE(ptr dead_on_unwind writable sret(%"class.std::shared_ptr") align 8 %8, ptr noundef nonnull align 8 dereferenceable(64) %15)
          to label %16 unwind label %26

16:                                               ; preds = %14
  %17 = load ptr, ptr %3, align 8, !tbaa !3
  invoke void @_ZN19OpenColorIO_v2_5dev14CreateMatrixOpERNS_10OpRcPtrVecERSt10shared_ptrINS_12MatrixOpData11MatrixArrayEENS_18TransformDirectionE(ptr noundef nonnull align 8 dereferenceable(144) %17, ptr noundef nonnull align 8 dereferenceable(16) %8, i32 noundef 0)
          to label %18 unwind label %30

18:                                               ; preds = %16
  call void @llvm.lifetime.start.p0(i64 16, ptr %9) #3
  invoke void @_ZN19OpenColorIO_v2_5dev20build_vonkries_adaptERKNS_12MatrixOpData7OffsetsES3_NS_16AdaptationMethodE(ptr dead_on_unwind writable sret(%"class.std::shared_ptr") align 8 %9, ptr noundef nonnull align 8 dereferenceable(32) @_ZN19OpenColorIO_v2_5dev10WHITEPOINT7D60_XYZE, ptr noundef nonnull align 8 dereferenceable(32) @_ZN19OpenColorIO_v2_5dev10WHITEPOINT7D65_XYZE, i32 noundef 1)
          to label %19 unwind label %34

19:                                               ; preds = %18
  %20 = load ptr, ptr %3, align 8, !tbaa !3
  invoke void @_ZN19OpenColorIO_v2_5dev14CreateMatrixOpERNS_10OpRcPtrVecERSt10shared_ptrINS_12MatrixOpData11MatrixArrayEENS_18TransformDirectionE(ptr noundef nonnull align 8 dereferenceable(144) %20, ptr noundef nonnull align 8 dereferenceable(16) %9, i32 noundef 0)
          to label %21 unwind label %38

21:                                               ; preds = %19
  call void @_ZNSt12__shared_ptrIN19OpenColorIO_v2_5dev12MatrixOpData11MatrixArrayELN9__gnu_cxx12_Lock_policyE2EED2Ev(ptr noundef nonnull align 8 dereferenceable(16) %9) #3
  call void @llvm.lifetime.end.p0(i64 16, ptr %9) #3
  call void @_ZNSt12__shared_ptrIN19OpenColorIO_v2_5dev12MatrixOpData11MatrixArrayELN9__gnu_cxx12_Lock_policyE2EED2Ev(ptr noundef nonnull align 8 dereferenceable(16) %8) #3
  call void @llvm.lifetime.end.p0(i64 16, ptr %8) #3
  call void @_ZNSt12__shared_ptrIN19OpenColorIO_v2_5dev12MatrixOpData11MatrixArrayELN9__gnu_cxx12_Lock_policyE2EED2Ev(ptr noundef nonnull align 8 dereferenceable(16) %5) #3
  call void @llvm.lifetime.end.p0(i64 16, ptr %5) #3
  ret void

22:                                               ; preds = %12, %2
  %23 = landingpad { ptr, i32 }
          cleanup
  %24 = extractvalue { ptr, i32 } %23, 0
  store ptr %24, ptr %6, align 8
  %25 = extractvalue { ptr, i32 } %23, 1
  store i32 %25, ptr %7, align 4
  br label %45

26:                                               ; preds = %14
  %27 = landingpad { ptr, i32 }
          cleanup
  %28 = extractvalue { ptr, i32 } %27, 0
  store ptr %28, ptr %6, align 8
  %29 = extractvalue { ptr, i32 } %27, 1
  store i32 %29, ptr %7, align 4
  br label %44

30:                                               ; preds = %16
  %31 = landingpad { ptr, i32 }
          cleanup
  %32 = extractvalue { ptr, i32 } %31, 0
  store ptr %32, ptr %6, align 8
  %33 = extractvalue { ptr, i32 } %31, 1
  store i32 %33, ptr %7, align 4
  br label %43

34:                                               ; preds = %18
  %35 = landingpad { ptr, i32 }
          cleanup
  %36 = extractvalue { ptr, i32 } %35, 0
  store ptr %36, ptr %6, align 8
  %37 = extractvalue { ptr, i32 } %35, 1
  store i32 %37, ptr %7, align 4
  br label %42

38:                                               ; preds = %19
  %39 = landingpad { ptr, i32 }
          cleanup
  %40 = extractvalue { ptr, i32 } %39, 0
  store ptr %40, ptr %6, align 8
  %41 = extractvalue { ptr, i32 } %39, 1
  store i32 %41, ptr %7, align 4
  call void @_ZNSt12__shared_ptrIN19OpenColorIO_v2_5dev12MatrixOpData11MatrixArrayELN9__gnu_cxx12_Lock_policyE2EED2Ev(ptr noundef nonnull align 8 dereferenceable(16) %9) #3
  br label %42

42:                                               ; preds = %38, %34
  call void @llvm.lifetime.end.p0(i64 16, ptr %9) #3
  br label %43

43:                                               ; preds = %42, %30
  call void @_ZNSt12__shared_ptrIN19OpenColorIO_v2_5dev12MatrixOpData11MatrixArrayELN9__gnu_cxx12_Lock_policyE2EED2Ev(ptr noundef nonnull align 8 dereferenceable(16) %8) #3
  br label %44

44:                                               ; preds = %43, %26
  call void @llvm.lifetime.end.p0(i64 16, ptr %8) #3
  br label %45

45:                                               ; preds = %44, %22
  call void @_ZNSt12__shared_ptrIN19OpenColorIO_v2_5dev12MatrixOpData11MatrixArrayELN9__gnu_cxx12_Lock_policyE2EED2Ev(ptr noundef nonnull align 8 dereferenceable(16) %5) #3
  call void @llvm.lifetime.end.p0(i64 16, ptr %5) #3
  br label %46

46:                                               ; preds = %45
  %47 = load ptr, ptr %6, align 8
  %48 = load i32, ptr %7, align 4
  %49 = insertvalue { ptr, i32 } poison, ptr %47, 0
  %50 = insertvalue { ptr, i32 } %49, i32 %48, 1
  resume { ptr, i32 } %50
}