; Function Attrs: mustprogress uwtable
define hidden void @_ZN19OpenColorIO_v2_5dev11ACES_OUTPUT30Generate_hdr_primary_clamp_opsERNS_10OpRcPtrVecERKNS_9PrimariesE(ptr noundef nonnull align 8 dereferenceable(144) %0, ptr noundef nonnull align 8 dereferenceable(64) %1) local_unnamed_addr #3 personality ptr @__gxx_personality_v0 {
  %3 = alloca %"class.std::shared_ptr", align 8
  %4 = alloca %"class.std::shared_ptr", align 8
  %5 = alloca %"class.std::shared_ptr", align 8
  call void @llvm.lifetime.start.p0(i64 16, ptr nonnull %3) #23
  call void @_ZN19OpenColorIO_v2_5dev23build_conversion_matrixERKNS_9PrimariesES2_NS_16AdaptationMethodE(ptr dead_on_unwind nonnull writable sret(%"class.std::shared_ptr") align 8 %3, ptr noundef nonnull align 8 dereferenceable(64) @_ZN19OpenColorIO_v2_5dev8ACES_AP19primariesE, ptr noundef nonnull align 8 dereferenceable(64) %1, i32 noundef 0)
  invoke void @_ZN19OpenColorIO_v2_5dev14CreateMatrixOpERNS_10OpRcPtrVecERSt10shared_ptrINS_12MatrixOpData11MatrixArrayEENS_18TransformDirectionE(ptr noundef nonnull align 8 dereferenceable(144) %0, ptr noundef nonnull align 8 dereferenceable(16) %3, i32 noundef 0)
          to label %6 unwind label %81

6:                                                ; preds = %2
  invoke void @_ZN19OpenColorIO_v2_5dev13CreateRangeOpERNS_10OpRcPtrVecEddddNS_18TransformDirectionE(ptr noundef nonnull align 8 dereferenceable(144) %0, double noundef 0.000000e+00, double noundef 1.000000e+00, double noundef 0.000000e+00, double noundef 1.000000e+00, i32 noundef 0)
          to label %7 unwind label %81

7:                                                ; preds = %6
  call void @llvm.lifetime.start.p0(i64 16, ptr nonnull %4) #23
  invoke void @_ZN19OpenColorIO_v2_5dev15rgb2xyz_from_xyERKNS_9PrimariesE(ptr dead_on_unwind nonnull writable sret(%"class.std::shared_ptr") align 8 %4, ptr noundef nonnull align 8 dereferenceable(64) %1)
          to label %8 unwind label %83

8:                                                ; preds = %7
  invoke void @_ZN19OpenColorIO_v2_5dev14CreateMatrixOpERNS_10OpRcPtrVecERSt10shared_ptrINS_12MatrixOpData11MatrixArrayEENS_18TransformDirectionE(ptr noundef nonnull align 8 dereferenceable(144) %0, ptr noundef nonnull align 8 dereferenceable(16) %4, i32 noundef 0)
          to label %9 unwind label %85

9:                                                ; preds = %8
  call void @llvm.lifetime.start.p0(i64 16, ptr nonnull %5) #23
  invoke void @_ZN19OpenColorIO_v2_5dev20build_vonkries_adaptERKNS_12MatrixOpData7OffsetsES3_NS_16AdaptationMethodE(ptr dead_on_unwind nonnull writable sret(%"class.std::shared_ptr") align 8 %5, ptr noundef nonnull align 8 dereferenceable(32) @_ZN19OpenColorIO_v2_5dev10WHITEPOINT7D60_XYZE, ptr noundef nonnull align 8 dereferenceable(32) @_ZN19OpenColorIO_v2_5dev10WHITEPOINT7D65_XYZE, i32 noundef 1)
          to label %10 unwind label %87

10:                                               ; preds = %9
  invoke void @_ZN19OpenColorIO_v2_5dev14CreateMatrixOpERNS_10OpRcPtrVecERSt10shared_ptrINS_12MatrixOpData11MatrixArrayEENS_18TransformDirectionE(ptr noundef nonnull align 8 dereferenceable(144) %0, ptr noundef nonnull align 8 dereferenceable(16) %5, i32 noundef 0)
          to label %11 unwind label %89

11:                                               ; preds = %10
  %12 = getelementptr inbounds nuw i8, ptr %5, i64 8
  %13 = load ptr, ptr %12, align 8, !tbaa !3
  %.not.i.i = icmp eq ptr %13, null
  br i1 %.not.i.i, label %_ZNSt12__shared_ptrIN19OpenColorIO_v2_5dev12MatrixOpData11MatrixArrayELN9__gnu_cxx12_Lock_policyE2EED2Ev.exit, label %14

14:                                               ; preds = %11
  %15 = getelementptr inbounds nuw i8, ptr %13, i64 8
  %16 = load atomic i64, ptr %15 acquire, align 8
  %17 = icmp eq i64 %16, 4294967297
  %18 = trunc i64 %16 to i32
  br i1 %17, label %19, label %27

19:                                               ; preds = %14
  store i32 0, ptr %15, align 8, !tbaa !9
  %20 = getelementptr inbounds nuw i8, ptr %13, i64 12
  store i32 0, ptr %20, align 4, !tbaa !12
  %21 = load ptr, ptr %13, align 8, !tbaa !13
  %22 = getelementptr inbounds nuw i8, ptr %21, i64 16
  %23 = load ptr, ptr %22, align 8
  call void %23(ptr noundef nonnull align 8 dereferenceable(16) %13) #23
  %24 = load ptr, ptr %13, align 8, !tbaa !13
  %25 = getelementptr inbounds nuw i8, ptr %24, i64 24
  %26 = load ptr, ptr %25, align 8
  call void %26(ptr noundef nonnull align 8 dereferenceable(16) %13) #23
  br label %_ZNSt12__shared_ptrIN19OpenColorIO_v2_5dev12MatrixOpData11MatrixArrayELN9__gnu_cxx12_Lock_policyE2EED2Ev.exit

27:                                               ; preds = %14
  %28 = load i8, ptr @__libc_single_threaded, align 1, !tbaa !15
  %.not.i.i.i = icmp eq i8 %28, 0
  br i1 %.not.i.i.i, label %31, label %29

29:                                               ; preds = %27
  %30 = add nsw i32 %18, -1
  store i32 %30, ptr %15, align 4, !tbaa !16
  br label %_ZN9__gnu_cxx27__exchange_and_add_dispatchEPii.exit.i.i.i

31:                                               ; preds = %27
  %32 = atomicrmw volatile add ptr %15, i32 -1 acq_rel, align 4
  br label %_ZN9__gnu_cxx27__exchange_and_add_dispatchEPii.exit.i.i.i

_ZN9__gnu_cxx27__exchange_and_add_dispatchEPii.exit.i.i.i: ; preds = %31, %29
  %.0.i.i.i.i = phi i32 [ %18, %29 ], [ %32, %31 ]
  %33 = icmp eq i32 %.0.i.i.i.i, 1
  br i1 %33, label %34, label %_ZNSt12__shared_ptrIN19OpenColorIO_v2_5dev12MatrixOpData11MatrixArrayELN9__gnu_cxx12_Lock_policyE2EED2Ev.exit, !prof !17

34:                                               ; preds = %_ZN9__gnu_cxx27__exchange_and_add_dispatchEPii.exit.i.i.i
  call void @_ZNSt16_Sp_counted_baseILN9__gnu_cxx12_Lock_policyE2EE24_M_release_last_use_coldEv(ptr noundef nonnull align 8 dereferenceable(16) %13) #23
  br label %_ZNSt12__shared_ptrIN19OpenColorIO_v2_5dev12MatrixOpData11MatrixArrayELN9__gnu_cxx12_Lock_policyE2EED2Ev.exit

_ZNSt12__shared_ptrIN19OpenColorIO_v2_5dev12MatrixOpData11MatrixArrayELN9__gnu_cxx12_Lock_policyE2EED2Ev.exit: ; preds = %11, %19, %_ZN9__gnu_cxx27__exchange_and_add_dispatchEPii.exit.i.i.i, %34
  call void @llvm.lifetime.end.p0(i64 16, ptr nonnull %5) #23
  %35 = getelementptr inbounds nuw i8, ptr %4, i64 8
  %36 = load ptr, ptr %35, align 8, !tbaa !3
  %.not.i.i15 = icmp eq ptr %36, null
  br i1 %.not.i.i15, label %_ZNSt12__shared_ptrIN19OpenColorIO_v2_5dev12MatrixOpData11MatrixArrayELN9__gnu_cxx12_Lock_policyE2EED2Ev.exit19, label %37

37:                                               ; preds = %_ZNSt12__shared_ptrIN19OpenColorIO_v2_5dev12MatrixOpData11MatrixArrayELN9__gnu_cxx12_Lock_policyE2EED2Ev.exit
  %38 = getelementptr inbounds nuw i8, ptr %36, i64 8
  %39 = load atomic i64, ptr %38 acquire, align 8
  %40 = icmp eq i64 %39, 4294967297
  %41 = trunc i64 %39 to i32
  br i1 %40, label %42, label %50

42:                                               ; preds = %37
  store i32 0, ptr %38, align 8, !tbaa !9
  %43 = getelementptr inbounds nuw i8, ptr %36, i64 12
  store i32 0, ptr %43, align 4, !tbaa !12
  %44 = load ptr, ptr %36, align 8, !tbaa !13
  %45 = getelementptr inbounds nuw i8, ptr %44, i64 16
  %46 = load ptr, ptr %45, align 8
  call void %46(ptr noundef nonnull align 8 dereferenceable(16) %36) #23
  %47 = load ptr, ptr %36, align 8, !tbaa !13
  %48 = getelementptr inbounds nuw i8, ptr %47, i64 24
  %49 = load ptr, ptr %48, align 8
  call void %49(ptr noundef nonnull align 8 dereferenceable(16) %36) #23
  br label %_ZNSt12__shared_ptrIN19OpenColorIO_v2_5dev12MatrixOpData11MatrixArrayELN9__gnu_cxx12_Lock_policyE2EED2Ev.exit19

50:                                               ; preds = %37
  %51 = load i8, ptr @__libc_single_threaded, align 1, !tbaa !15
  %.not.i.i.i16 = icmp eq i8 %51, 0
  br i1 %.not.i.i.i16, label %54, label %52

52:                                               ; preds = %50
  %53 = add nsw i32 %41, -1
  store i32 %53, ptr %38, align 4, !tbaa !16
  br label %_ZN9__gnu_cxx27__exchange_and_add_dispatchEPii.exit.i.i.i17

54:                                               ; preds = %50
  %55 = atomicrmw volatile add ptr %38, i32 -1 acq_rel, align 4
  br label %_ZN9__gnu_cxx27__exchange_and_add_dispatchEPii.exit.i.i.i17

_ZN9__gnu_cxx27__exchange_and_add_dispatchEPii.exit.i.i.i17: ; preds = %54, %52
  %.0.i.i.i.i18 = phi i32 [ %41, %52 ], [ %55, %54 ]
  %56 = icmp eq i32 %.0.i.i.i.i18, 1
  br i1 %56, label %57, label %_ZNSt12__shared_ptrIN19OpenColorIO_v2_5dev12MatrixOpData11MatrixArrayELN9__gnu_cxx12_Lock_policyE2EED2Ev.exit19, !prof !17

57:                                               ; preds = %_ZN9__gnu_cxx27__exchange_and_add_dispatchEPii.exit.i.i.i17
  call void @_ZNSt16_Sp_counted_baseILN9__gnu_cxx12_Lock_policyE2EE24_M_release_last_use_coldEv(ptr noundef nonnull align 8 dereferenceable(16) %36) #23
  br label %_ZNSt12__shared_ptrIN19OpenColorIO_v2_5dev12MatrixOpData11MatrixArrayELN9__gnu_cxx12_Lock_policyE2EED2Ev.exit19

_ZNSt12__shared_ptrIN19OpenColorIO_v2_5dev12MatrixOpData11MatrixArrayELN9__gnu_cxx12_Lock_policyE2EED2Ev.exit19: ; preds = %_ZNSt12__shared_ptrIN19OpenColorIO_v2_5dev12MatrixOpData11MatrixArrayELN9__gnu_cxx12_Lock_policyE2EED2Ev.exit, %42, %_ZN9__gnu_cxx27__exchange_and_add_dispatchEPii.exit.i.i.i17, %57
  call void @llvm.lifetime.end.p0(i64 16, ptr nonnull %4) #23
  %58 = getelementptr inbounds nuw i8, ptr %3, i64 8
  %59 = load ptr, ptr %58, align 8, !tbaa !3
  %.not.i.i20 = icmp eq ptr %59, null
  br i1 %.not.i.i20, label %_ZNSt12__shared_ptrIN19OpenColorIO_v2_5dev12MatrixOpData11MatrixArrayELN9__gnu_cxx12_Lock_policyE2EED2Ev.exit24, label %60

60:                                               ; preds = %_ZNSt12__shared_ptrIN19OpenColorIO_v2_5dev12MatrixOpData11MatrixArrayELN9__gnu_cxx12_Lock_policyE2EED2Ev.exit19
  %61 = getelementptr inbounds nuw i8, ptr %59, i64 8
  %62 = load atomic i64, ptr %61 acquire, align 8
  %63 = icmp eq i64 %62, 4294967297
  %64 = trunc i64 %62 to i32
  br i1 %63, label %65, label %73

65:                                               ; preds = %60
  store i32 0, ptr %61, align 8, !tbaa !9
  %66 = getelementptr inbounds nuw i8, ptr %59, i64 12
  store i32 0, ptr %66, align 4, !tbaa !12
  %67 = load ptr, ptr %59, align 8, !tbaa !13
  %68 = getelementptr inbounds nuw i8, ptr %67, i64 16
  %69 = load ptr, ptr %68, align 8
  call void %69(ptr noundef nonnull align 8 dereferenceable(16) %59) #23
  %70 = load ptr, ptr %59, align 8, !tbaa !13
  %71 = getelementptr inbounds nuw i8, ptr %70, i64 24
  %72 = load ptr, ptr %71, align 8
  call void %72(ptr noundef nonnull align 8 dereferenceable(16) %59) #23
  br label %_ZNSt12__shared_ptrIN19OpenColorIO_v2_5dev12MatrixOpData11MatrixArrayELN9__gnu_cxx12_Lock_policyE2EED2Ev.exit24

73:                                               ; preds = %60
  %74 = load i8, ptr @__libc_single_threaded, align 1, !tbaa !15
  %.not.i.i.i21 = icmp eq i8 %74, 0
  br i1 %.not.i.i.i21, label %77, label %75

75:                                               ; preds = %73
  %76 = add nsw i32 %64, -1
  store i32 %76, ptr %61, align 4, !tbaa !16
  br label %_ZN9__gnu_cxx27__exchange_and_add_dispatchEPii.exit.i.i.i22

77:                                               ; preds = %73
  %78 = atomicrmw volatile add ptr %61, i32 -1 acq_rel, align 4
  br label %_ZN9__gnu_cxx27__exchange_and_add_dispatchEPii.exit.i.i.i22

_ZN9__gnu_cxx27__exchange_and_add_dispatchEPii.exit.i.i.i22: ; preds = %77, %75
  %.0.i.i.i.i23 = phi i32 [ %64, %75 ], [ %78, %77 ]
  %79 = icmp eq i32 %.0.i.i.i.i23, 1
  br i1 %79, label %80, label %_ZNSt12__shared_ptrIN19OpenColorIO_v2_5dev12MatrixOpData11MatrixArrayELN9__gnu_cxx12_Lock_policyE2EED2Ev.exit24, !prof !17

80:                                               ; preds = %_ZN9__gnu_cxx27__exchange_and_add_dispatchEPii.exit.i.i.i22
  call void @_ZNSt16_Sp_counted_baseILN9__gnu_cxx12_Lock_policyE2EE24_M_release_last_use_coldEv(ptr noundef nonnull align 8 dereferenceable(16) %59) #23
  br label %_ZNSt12__shared_ptrIN19OpenColorIO_v2_5dev12MatrixOpData11MatrixArrayELN9__gnu_cxx12_Lock_policyE2EED2Ev.exit24

_ZNSt12__shared_ptrIN19OpenColorIO_v2_5dev12MatrixOpData11MatrixArrayELN9__gnu_cxx12_Lock_policyE2EED2Ev.exit24: ; preds = %_ZNSt12__shared_ptrIN19OpenColorIO_v2_5dev12MatrixOpData11MatrixArrayELN9__gnu_cxx12_Lock_policyE2EED2Ev.exit19, %65, %_ZN9__gnu_cxx27__exchange_and_add_dispatchEPii.exit.i.i.i22, %80
  call void @llvm.lifetime.end.p0(i64 16, ptr nonnull %3) #23
  ret void

81:                                               ; preds = %6, %2
  %82 = landingpad { ptr, i32 }
          cleanup
  br label %94

83:                                               ; preds = %7
  %84 = landingpad { ptr, i32 }
          cleanup
  br label %93

85:                                               ; preds = %8
  %86 = landingpad { ptr, i32 }
          cleanup
  br label %92

87:                                               ; preds = %9
  %88 = landingpad { ptr, i32 }
          cleanup
  br label %91

89:                                               ; preds = %10
  %90 = landingpad { ptr, i32 }
          cleanup
  call void @_ZNSt12__shared_ptrIN19OpenColorIO_v2_5dev12MatrixOpData11MatrixArrayELN9__gnu_cxx12_Lock_policyE2EED2Ev(ptr noundef nonnull align 8 dereferenceable(16) %5) #23
  br label %91

91:                                               ; preds = %89, %87
  %.pn = phi { ptr, i32 } [ %90, %89 ], [ %88, %87 ]
  call void @llvm.lifetime.end.p0(i64 16, ptr nonnull %5) #23
  br label %92

92:                                               ; preds = %91, %85
  %.pn.pn = phi { ptr, i32 } [ %.pn, %91 ], [ %86, %85 ]
  call void @_ZNSt12__shared_ptrIN19OpenColorIO_v2_5dev12MatrixOpData11MatrixArrayELN9__gnu_cxx12_Lock_policyE2EED2Ev(ptr noundef nonnull align 8 dereferenceable(16) %4) #23
  br label %93

93:                                               ; preds = %92, %83
  %.pn.pn.pn = phi { ptr, i32 } [ %.pn.pn, %92 ], [ %84, %83 ]
  call void @llvm.lifetime.end.p0(i64 16, ptr nonnull %4) #23
  br label %94

94:                                               ; preds = %93, %81
  %.pn.pn.pn.pn = phi { ptr, i32 } [ %.pn.pn.pn, %93 ], [ %82, %81 ]
  call void @_ZNSt12__shared_ptrIN19OpenColorIO_v2_5dev12MatrixOpData11MatrixArrayELN9__gnu_cxx12_Lock_policyE2EED2Ev(ptr noundef nonnull align 8 dereferenceable(16) %3) #23
  call void @llvm.lifetime.end.p0(i64 16, ptr nonnull %3) #23
  resume { ptr, i32 } %.pn.pn.pn.pn
}